; Function Attrs: mustprogress nounwind uwtable
define internal fastcc void @_ZN12_GLOBAL__N_115saveTempBitcodeERKN4llvm6ModuleENS0_9StringRefEjS4_(ptr noundef nonnull align 8 dereferenceable(857) %0, ptr %1, i64 %2, i32 noundef %3, ptr %4, i64 %5) unnamed_addr #0 {
  %7 = alloca %"class.std::__cxx11::basic_string", align 8
  %8 = alloca %"class.llvm::Twine", align 8
  %9 = alloca %"class.llvm::Twine", align 8
  %10 = alloca %"class.std::error_code", align 8
  %11 = alloca %"class.llvm::raw_fd_ostream", align 8
  %12 = alloca %"class.llvm::Twine", align 8
  %13 = alloca %"class.llvm::Twine", align 8
  %14 = alloca %"class.llvm::Twine", align 8
  %15 = alloca %"class.llvm::Twine", align 8
  %16 = alloca %"class.llvm::Twine", align 8
  %17 = icmp eq i64 %2, 0
  br i1 %17, label %38, label %_ZN4llvmplERKNS_5TwineES2_.exit15

_ZN4llvmplERKNS_5TwineES2_.exit15:                ; preds = %6
  %.sroa.022.0.insert.ext = zext i32 %3 to i64
  %18 = inttoptr i64 %.sroa.022.0.insert.ext to ptr
  store ptr %1, ptr %9, align 8, !alias.scope !329
  %.sroa.23.0..sroa_idx.i.i.i = getelementptr inbounds i8, ptr %9, i64 8
  store i64 %2, ptr %.sroa.23.0..sroa_idx.i.i.i, align 8, !alias.scope !329
  %19 = getelementptr inbounds nuw i8, ptr %9, i64 16
  store ptr %18, ptr %19, align 8, !alias.scope !329
  %20 = getelementptr inbounds nuw i8, ptr %9, i64 32
  store i8 5, ptr %20, align 8, !alias.scope !329
  %21 = getelementptr inbounds nuw i8, ptr %9, i64 33
  store i8 9, ptr %21, align 1, !alias.scope !329
  store ptr %9, ptr %8, align 8, !alias.scope !334
  %22 = getelementptr inbounds nuw i8, ptr %8, i64 16
  store ptr %4, ptr %22, align 8, !alias.scope !334
  %.sroa.2.0..sroa_idx.i.i.i14 = getelementptr inbounds i8, ptr %8, i64 24
  store i64 %5, ptr %.sroa.2.0..sroa_idx.i.i.i14, align 8, !alias.scope !334
  %23 = getelementptr inbounds nuw i8, ptr %8, i64 32
  store i8 2, ptr %23, align 8, !alias.scope !334
  %24 = getelementptr inbounds nuw i8, ptr %8, i64 33
  store i8 5, ptr %24, align 1, !alias.scope !334
  call void @_ZNK4llvm5Twine3strB5cxx11Ev(ptr dead_on_unwind nonnull writable sret(%"class.std::__cxx11::basic_string") align 8 %7, ptr noundef nonnull align 8 dereferenceable(34) %8) #25
  store i32 0, ptr %10, align 8
  %25 = getelementptr inbounds nuw i8, ptr %10, i64 8
  %26 = tail call noundef nonnull align 8 dereferenceable(8) ptr @_ZNSt3_V215system_categoryEv() #30
  store ptr %26, ptr %25, align 8
  %27 = call noundef ptr @_ZNKSt7__cxx1112basic_stringIcSt11char_traitsIcESaIcEE4dataEv(ptr noundef nonnull align 8 dereferenceable(32) %7) #25
  %28 = call noundef i64 @_ZNKSt7__cxx1112basic_stringIcSt11char_traitsIcESaIcEE6lengthEv(ptr noundef nonnull align 8 dereferenceable(32) %7) #25
  call void @_ZN4llvm14raw_fd_ostreamC1ENS_9StringRefERSt10error_codeNS_3sys2fs9OpenFlagsE(ptr noundef nonnull align 8 dereferenceable(96) %11, ptr %27, i64 %28, ptr noundef nonnull align 8 dereferenceable(16) %10, i32 noundef 0) #25
  %29 = load i32, ptr %10, align 8
  %.not = icmp eq i32 %29, 0
  br i1 %.not, label %37, label %30

30:                                               ; preds = %_ZN4llvmplERKNS_5TwineES2_.exit15
  %31 = getelementptr inbounds nuw i8, ptr %14, i64 32
  %32 = getelementptr inbounds nuw i8, ptr %14, i64 33
  store i8 1, ptr %32, align 1
  store ptr @.str.5, ptr %14, align 8
  store i8 3, ptr %31, align 8
  %33 = getelementptr inbounds nuw i8, ptr %15, i64 32
  store i8 4, ptr %33, align 8
  %34 = getelementptr inbounds nuw i8, ptr %15, i64 33
  store i8 1, ptr %34, align 1
  store ptr %7, ptr %15, align 8
  call void @_ZN4llvmplERKNS_5TwineES2_(ptr dead_on_unwind nonnull writable sret(%"class.llvm::Twine") align 8 %13, ptr noundef nonnull align 8 dereferenceable(34) %14, ptr noundef nonnull align 8 dereferenceable(34) %15)
  %35 = getelementptr inbounds nuw i8, ptr %16, i64 32
  %36 = getelementptr inbounds nuw i8, ptr %16, i64 33
  store i8 1, ptr %36, align 1
  store ptr @.str.18, ptr %16, align 8
  store i8 3, ptr %35, align 8
  call void @_ZN4llvmplERKNS_5TwineES2_(ptr dead_on_unwind nonnull writable sret(%"class.llvm::Twine") align 8 %12, ptr noundef nonnull align 8 dereferenceable(34) %13, ptr noundef nonnull align 8 dereferenceable(34) %16)
  call void @_ZN4llvm18report_fatal_errorERKNS_5TwineEb(ptr noundef nonnull align 8 dereferenceable(34) %12, i1 noundef zeroext true) #26
  unreachable

37:                                               ; preds = %_ZN4llvmplERKNS_5TwineES2_.exit15
  call void @_ZN4llvm18WriteBitcodeToFileERKNS_6ModuleERNS_11raw_ostreamEbPKNS_18ModuleSummaryIndexEbPSt5arrayIjLm5EE(ptr noundef nonnull align 8 dereferenceable(857) %0, ptr noundef nonnull align 8 dereferenceable(48) %11, i1 noundef zeroext true, ptr noundef null, i1 noundef zeroext false, ptr noundef null) #25
  call void @_ZN4llvm14raw_fd_ostreamD1Ev(ptr noundef nonnull align 8 dereferenceable(96) %11) #25
  call void @_ZNSt7__cxx1112basic_stringIcSt11char_traitsIcESaIcEED1Ev(ptr noundef nonnull align 8 dereferenceable(32) %7) #25
  br label %38

38:                                               ; preds = %6, %37
  ret void
}